; Function Attrs: norecurse nounwind uwtable
define internal void @_ZN6OctreeIfE14_solveSystemGSILi2EL12BoundaryType2E16FEMSystemFunctorILi2ELS2_2EELb0EEEiRKT1_RK11BSplineDataIXT_EXT0_EEPNS0_17InterpolationInfoIXT2_EEEiR13DenseNodeDataIfXT_EESH_SH_ibRNS0_12_SolverStatsEb.omp_outlined(ptr noalias nocapture noundef readonly %0, ptr noalias nocapture readnone %1, ptr nocapture noundef readonly %2, ptr nocapture noundef nonnull readonly align 4 dereferenceable(4) %3, ptr nocapture noundef nonnull readonly align 8 dereferenceable(16) %4, ptr nocapture noundef nonnull readonly align 8 dereferenceable(16) %5) #23 personality ptr @__gxx_personality_v0 {
  %7 = alloca i32, align 4
  %8 = alloca i32, align 4
  %9 = alloca i32, align 4
  %10 = alloca i32, align 4
  %11 = load i32, ptr %3, align 4
  %12 = add nsw i32 %11, -1
  %13 = getelementptr inbounds i8, ptr %2, i64 16
  %14 = getelementptr inbounds i8, ptr %2, i64 48
  %15 = load i32, ptr %14, align 8
  %16 = add nsw i32 %12, %15
  %17 = load ptr, ptr %13, align 8
  %18 = sext i32 %16 to i64
  %19 = getelementptr inbounds ptr, ptr %17, i64 %18
  %20 = load ptr, ptr %19, align 8
  %21 = load i32, ptr %20, align 4
  %22 = zext nneg i32 %16 to i64
  %23 = shl nuw i64 1, %22
  %24 = getelementptr inbounds i32, ptr %20, i64 %23
  %25 = load i32, ptr %24, align 4
  %26 = icmp slt i32 %21, %25
  br i1 %26, label %27, label %52

27:                                               ; preds = %6
  %28 = xor i32 %21, -1
  %29 = add i32 %25, %28
  store i32 0, ptr %7, align 4
  store i32 %29, ptr %8, align 4
  store i32 1, ptr %9, align 4
  store i32 0, ptr %10, align 4
  %30 = load i32, ptr %0, align 4
  call void @__kmpc_for_static_init_4u(ptr nonnull @1, i32 %30, i32 34, ptr nonnull %10, ptr nonnull %7, ptr nonnull %8, ptr nonnull %9, i32 1, i32 1)
  %31 = load i32, ptr %8, align 4
  %32 = call i32 @llvm.umin.i32(i32 %31, i32 %29)
  store i32 %32, ptr %8, align 4
  %33 = load i32, ptr %7, align 4
  %34 = add i32 %32, 1
  %35 = icmp ult i32 %33, %34
  br i1 %35, label %.lr.ph, label %._crit_edge

.lr.ph:                                           ; preds = %27
  %36 = getelementptr inbounds i8, ptr %5, i64 8
  %37 = getelementptr inbounds i8, ptr %4, i64 8
  br label %38

38:                                               ; preds = %.lr.ph, %38
  %.022 = phi i32 [ %33, %.lr.ph ], [ %48, %38 ]
  %39 = add i32 %.022, %21
  %40 = load ptr, ptr %36, align 8
  %41 = sext i32 %39 to i64
  %42 = getelementptr inbounds float, ptr %40, i64 %41
  %43 = load float, ptr %42, align 4
  %44 = load ptr, ptr %37, align 8
  %45 = getelementptr inbounds float, ptr %44, i64 %41
  %46 = load float, ptr %45, align 4
  %47 = fadd float %43, %46
  store float %47, ptr %45, align 4
  %48 = add nuw i32 %.022, 1
  %49 = load i32, ptr %8, align 4
  %50 = add i32 %49, 1
  %51 = icmp ult i32 %48, %50
  br i1 %51, label %38, label %._crit_edge

._crit_edge:                                      ; preds = %38, %27
  call void @__kmpc_for_static_fini(ptr nonnull @1, i32 %30)
  br label %52

52:                                               ; preds = %._crit_edge, %6
  ret void
}